; ModuleID = '33/338.c'
source_filename = "33/338.c"
target datalayout = "e-m:e-p270:32:32-p271:32:32-p272:64:64-i64:64-f80:128-n8:16:32:64-S128"
target triple = "x86_64-pc-linux-gnu"

@.str = private unnamed_addr constant [3 x i8] c"%d\00", align 1
@.str.1 = private unnamed_addr constant [3 x i8] c"%s\00", align 1
@.str.2 = private unnamed_addr constant [4 x i8] c"%s\0A\00", align 1

; Function Attrs: noinline nounwind uwtable
define dso_local i32 @main() #0 {
  %1 = alloca i32, align 4
  %2 = alloca i32, align 4
  %3 = alloca i32, align 4
  %4 = alloca i32, align 4
  %5 = alloca i32, align 4
  %6 = alloca [1100 x [256 x i8]], align 16
  %7 = alloca [256 x i8], align 16
  store i32 0, i32* %1, align 4
  %8 = call i32 (i8*, ...) @__isoc99_scanf(i8* getelementptr inbounds ([3 x i8], [3 x i8]* @.str, i64 0, i64 0), i32* %2)
  store i32 0, i32* %3, align 4
  br label %9

9:                                                ; preds = %83, %0
  %10 = load i32, i32* %3, align 4
  %11 = load i32, i32* %2, align 4
  %12 = sub nsw i32 %11, 1
  %13 = icmp sle i32 %10, %12
  br i1 %13, label %14, label %86

14:                                               ; preds = %9
  %15 = getelementptr inbounds [256 x i8], [256 x i8]* %7, i64 0, i64 0
  %16 = call i32 (i8*, ...) @__isoc99_scanf(i8* getelementptr inbounds ([3 x i8], [3 x i8]* @.str.1, i64 0, i64 0), i8* %15)
  %17 = getelementptr inbounds [256 x i8], [256 x i8]* %7, i64 0, i64 0
  %18 = call i64 @strlen(i8* %17) #4
  %19 = trunc i64 %18 to i32
  store i32 %19, i32* %4, align 4
  store i32 0, i32* %5, align 4
  br label %20

20:                                               ; preds = %73, %14
  %21 = load i32, i32* %5, align 4
  %22 = load i32, i32* %4, align 4
  %23 = sub nsw i32 %22, 1
  %24 = icmp sle i32 %21, %23
  br i1 %24, label %25, label %76

25:                                               ; preds = %20
  %26 = load i32, i32* %5, align 4
  %27 = sext i32 %26 to i64
  %28 = getelementptr inbounds [256 x i8], [256 x i8]* %7, i64 0, i64 %27
  %29 = load i8, i8* %28, align 1
  %30 = sext i8 %29 to i32
  %31 = icmp eq i32 %30, 65
  br i1 %31, label %32, label %36

32:                                               ; preds = %25
  %33 = load i32, i32* %5, align 4
  %34 = sext i32 %33 to i64
  %35 = getelementptr inbounds [256 x i8], [256 x i8]* %7, i64 0, i64 %34
  store i8 84, i8* %35, align 1
  br label %72

36:                                               ; preds = %25
  %37 = load i32, i32* %5, align 4
  %38 = sext i32 %37 to i64
  %39 = getelementptr inbounds [256 x i8], [256 x i8]* %7, i64 0, i64 %38
  %40 = load i8, i8* %39, align 1
  %41 = sext i8 %40 to i32
  %42 = icmp eq i32 %41, 84
  br i1 %42, label %43, label %47

43:                                               ; preds = %36
  %44 = load i32, i32* %5, align 4
  %45 = sext i32 %44 to i64
  %46 = getelementptr inbounds [256 x i8], [256 x i8]* %7, i64 0, i64 %45
  store i8 65, i8* %46, align 1
  br label %71

47:                                               ; preds = %36
  %48 = load i32, i32* %5, align 4
  %49 = sext i32 %48 to i64
  %50 = getelementptr inbounds [256 x i8], [256 x i8]* %7, i64 0, i64 %49
  %51 = load i8, i8* %50, align 1
  %52 = sext i8 %51 to i32
  %53 = icmp eq i32 %52, 71
  br i1 %53, label %54, label %58

54:                                               ; preds = %47
  %55 = load i32, i32* %5, align 4
  %56 = sext i32 %55 to i64
  %57 = getelementptr inbounds [256 x i8], [256 x i8]* %7, i64 0, i64 %56
  store i8 67, i8* %57, align 1
  br label %70

58:                                               ; preds = %47
  %59 = load i32, i32* %5, align 4
  %60 = sext i32 %59 to i64
  %61 = getelementptr inbounds [256 x i8], [256 x i8]* %7, i64 0, i64 %60
  %62 = load i8, i8* %61, align 1
  %63 = sext i8 %62 to i32
  %64 = icmp eq i32 %63, 67
  br i1 %64, label %65, label %69

65:                                               ; preds = %58
  %66 = load i32, i32* %5, align 4
  %67 = sext i32 %66 to i64
  %68 = getelementptr inbounds [256 x i8], [256 x i8]* %7, i64 0, i64 %67
  store i8 71, i8* %68, align 1
  br label %69

69:                                               ; preds = %65, %58
  br label %70

70:                                               ; preds = %69, %54
  br label %71

71:                                               ; preds = %70, %43
  br label %72

72:                                               ; preds = %71, %32
  br label %73

73:                                               ; preds = %72
  %74 = load i32, i32* %5, align 4
  %75 = add nsw i32 %74, 1
  store i32 %75, i32* %5, align 4
  br label %20

76:                                               ; preds = %20
  %77 = load i32, i32* %3, align 4
  %78 = sext i32 %77 to i64
  %79 = getelementptr inbounds [1100 x [256 x i8]], [1100 x [256 x i8]]* %6, i64 0, i64 %78
  %80 = getelementptr inbounds [256 x i8], [256 x i8]* %79, i64 0, i64 0
  %81 = getelementptr inbounds [256 x i8], [256 x i8]* %7, i64 0, i64 0
  %82 = call i8* @strcpy(i8* %80, i8* %81) #5
  br label %83

83:                                               ; preds = %76
  %84 = load i32, i32* %3, align 4
  %85 = add nsw i32 %84, 1
  store i32 %85, i32* %3, align 4
  br label %9

86:                                               ; preds = %9
  store i32 0, i32* %3, align 4
  br label %87

87:                                               ; preds = %98, %86
  %88 = load i32, i32* %3, align 4
  %89 = load i32, i32* %2, align 4
  %90 = sub nsw i32 %89, 1
  %91 = icmp sle i32 %88, %90
  br i1 %91, label %92, label %101

92:                                               ; preds = %87
  %93 = load i32, i32* %3, align 4
  %94 = sext i32 %93 to i64
  %95 = getelementptr inbounds [1100 x [256 x i8]], [1100 x [256 x i8]]* %6, i64 0, i64 %94
  %96 = getelementptr inbounds [256 x i8], [256 x i8]* %95, i64 0, i64 0
  %97 = call i32 (i8*, ...) @printf(i8* getelementptr inbounds ([4 x i8], [4 x i8]* @.str.2, i64 0, i64 0), i8* %96)
  br label %98

98:                                               ; preds = %92
  %99 = load i32, i32* %3, align 4
  %100 = add nsw i32 %99, 1
  store i32 %100, i32* %3, align 4
  br label %87

101:                                              ; preds = %87
  %102 = load i32, i32* %1, align 4
  ret i32 %102
}

declare dso_local i32 @__isoc99_scanf(i8*, ...) #1

; Function Attrs: nounwind readonly
declare dso_local i64 @strlen(i8*) #2

; Function Attrs: nounwind
declare dso_local i8* @strcpy(i8*, i8*) #3

declare dso_local i32 @printf(i8*, ...) #1


!llvm.module.flags = !{!0}
!llvm.ident = !{!1}

!0 = !{i32 1, !"wchar_size", i32 4}
!1 = !{!"clang version 10.0.0-4ubuntu1 "}
