; ModuleID = 'source-C-CXX/32/338.c'
source_filename = "source-C-CXX/32/338.c"
target datalayout = "e-m:e-p270:32:32-p271:32:32-p272:64:64-i64:64-f80:128-n8:16:32:64-S128"
target triple = "x86_64-pc-linux-gnu"

@.str = private unnamed_addr constant [3 x i8] c"%d\00", align 1
@.str.1 = private unnamed_addr constant [3 x i8] c"%s\00", align 1

; Function Attrs: nofree nounwind sspstrong uwtable
define dso_local i32 @main() local_unnamed_addr #0 {
  %1 = alloca i32, align 4
  %2 = alloca [1100 x [256 x i8]], align 16
  %3 = alloca [256 x i8], align 16
  %4 = bitcast i32* %1 to i8*
  call void @llvm.lifetime.start.p0i8(i64 4, i8* nonnull %4) #6
  %5 = getelementptr inbounds [1100 x [256 x i8]], [1100 x [256 x i8]]* %2, i64 0, i64 0, i64 0
  call void @llvm.lifetime.start.p0i8(i64 281600, i8* nonnull %5) #6
  %6 = getelementptr inbounds [256 x i8], [256 x i8]* %3, i64 0, i64 0
  call void @llvm.lifetime.start.p0i8(i64 256, i8* nonnull %6) #6
  %7 = call i32 (i8*, ...) @__isoc99_scanf(i8* getelementptr inbounds ([3 x i8], [3 x i8]* @.str, i64 0, i64 0), i32* nonnull %1)
  %8 = load i32, i32* %1, align 4, !tbaa !5
  %9 = icmp sgt i32 %8, 0
  br i1 %9, label %12, label %64

10:                                               ; preds = %49
  %11 = icmp sgt i32 %53, 0
  br i1 %11, label %56, label %64

12:                                               ; preds = %0, %49
  %13 = phi i64 [ %52, %49 ], [ 0, %0 ]
  %14 = call i32 (i8*, ...) @__isoc99_scanf(i8* getelementptr inbounds ([3 x i8], [3 x i8]* @.str.1, i64 0, i64 0), i8* nonnull %6)
  %15 = call i64 @strlen(i8* noundef nonnull %6) #7
  %16 = trunc i64 %15 to i32
  %17 = icmp sgt i32 %16, 0
  br i1 %17, label %18, label %49

18:                                               ; preds = %12
  %19 = and i64 %15, 4294967295
  %20 = and i64 %15, 1
  %21 = icmp eq i64 %19, 1
  br i1 %21, label %38, label %22

22:                                               ; preds = %18
  %23 = sub nsw i64 %19, %20
  br label %24

24:                                               ; preds = %70, %22
  %25 = phi i64 [ 0, %22 ], [ %71, %70 ]
  %26 = phi i64 [ %23, %22 ], [ %72, %70 ]
  %27 = getelementptr inbounds [256 x i8], [256 x i8]* %3, i64 0, i64 %25
  %28 = load i8, i8* %27, align 2, !tbaa !9
  switch i8 %28, label %34 [
    i8 65, label %32
    i8 84, label %29
    i8 71, label %30
    i8 67, label %31
  ]

29:                                               ; preds = %24
  br label %32

30:                                               ; preds = %24
  br label %32

31:                                               ; preds = %24
  br label %32

32:                                               ; preds = %24, %29, %31, %30
  %33 = phi i8 [ 67, %30 ], [ 71, %31 ], [ 65, %29 ], [ 84, %24 ]
  store i8 %33, i8* %27, align 2, !tbaa !9
  br label %34

34:                                               ; preds = %32, %24
  %35 = or i64 %25, 1
  %36 = getelementptr inbounds [256 x i8], [256 x i8]* %3, i64 0, i64 %35
  %37 = load i8, i8* %36, align 1, !tbaa !9
  switch i8 %37, label %70 [
    i8 65, label %68
    i8 84, label %67
    i8 71, label %66
    i8 67, label %65
  ]

38:                                               ; preds = %70, %18
  %39 = phi i64 [ 0, %18 ], [ %71, %70 ]
  %40 = icmp eq i64 %20, 0
  br i1 %40, label %49, label %41

41:                                               ; preds = %38
  %42 = getelementptr inbounds [256 x i8], [256 x i8]* %3, i64 0, i64 %39
  %43 = load i8, i8* %42, align 1, !tbaa !9
  switch i8 %43, label %49 [
    i8 65, label %47
    i8 84, label %46
    i8 71, label %45
    i8 67, label %44
  ]

44:                                               ; preds = %41
  br label %47

45:                                               ; preds = %41
  br label %47

46:                                               ; preds = %41
  br label %47

47:                                               ; preds = %46, %45, %44, %41
  %48 = phi i8 [ 67, %45 ], [ 71, %44 ], [ 65, %46 ], [ 84, %41 ]
  store i8 %48, i8* %42, align 1, !tbaa !9
  br label %49

49:                                               ; preds = %38, %41, %47, %12
  %50 = getelementptr inbounds [1100 x [256 x i8]], [1100 x [256 x i8]]* %2, i64 0, i64 %13, i64 0
  %51 = call i8* @strcpy(i8* noundef nonnull %50, i8* noundef nonnull %6) #6
  %52 = add nuw nsw i64 %13, 1
  %53 = load i32, i32* %1, align 4, !tbaa !5
  %54 = sext i32 %53 to i64
  %55 = icmp slt i64 %52, %54
  br i1 %55, label %12, label %10, !llvm.loop !10

56:                                               ; preds = %10, %56
  %57 = phi i64 [ %60, %56 ], [ 0, %10 ]
  %58 = getelementptr inbounds [1100 x [256 x i8]], [1100 x [256 x i8]]* %2, i64 0, i64 %57, i64 0
  %59 = call i32 @puts(i8* nonnull %58)
  %60 = add nuw nsw i64 %57, 1
  %61 = load i32, i32* %1, align 4, !tbaa !5
  %62 = sext i32 %61 to i64
  %63 = icmp slt i64 %60, %62
  br i1 %63, label %56, label %64, !llvm.loop !12

64:                                               ; preds = %56, %0, %10
  call void @llvm.lifetime.end.p0i8(i64 256, i8* nonnull %6) #6
  call void @llvm.lifetime.end.p0i8(i64 281600, i8* nonnull %5) #6
  call void @llvm.lifetime.end.p0i8(i64 4, i8* nonnull %4) #6
  ret i32 0

65:                                               ; preds = %34
  br label %68

66:                                               ; preds = %34
  br label %68

67:                                               ; preds = %34
  br label %68

68:                                               ; preds = %67, %66, %65, %34
  %69 = phi i8 [ 67, %66 ], [ 71, %65 ], [ 65, %67 ], [ 84, %34 ]
  store i8 %69, i8* %36, align 1, !tbaa !9
  br label %70

70:                                               ; preds = %68, %34
  %71 = add nuw nsw i64 %25, 2
  %72 = add i64 %26, -2
  %73 = icmp eq i64 %72, 0
  br i1 %73, label %38, label %24, !llvm.loop !13
}

; Function Attrs: argmemonly mustprogress nofree nosync nounwind willreturn
declare void @llvm.lifetime.start.p0i8(i64 immarg, i8* nocapture) #1

; Function Attrs: nofree nounwind
declare noundef i32 @__isoc99_scanf(i8* nocapture noundef readonly, ...) local_unnamed_addr #2

; Function Attrs: argmemonly mustprogress nofree nounwind readonly willreturn
declare i64 @strlen(i8* nocapture) local_unnamed_addr #3

; Function Attrs: argmemonly mustprogress nofree nounwind willreturn
declare i8* @strcpy(i8* noalias returned writeonly, i8* noalias nocapture readonly) local_unnamed_addr #4

; Function Attrs: argmemonly mustprogress nofree nosync nounwind willreturn
declare void @llvm.lifetime.end.p0i8(i64 immarg, i8* nocapture) #1

; Function Attrs: nofree nounwind
declare noundef i32 @puts(i8* nocapture noundef readonly) local_unnamed_addr #5


!llvm.module.flags = !{!0, !1, !2, !3}
!llvm.ident = !{!4}

!0 = !{i32 1, !"wchar_size", i32 4}
!1 = !{i32 7, !"PIC Level", i32 2}
!2 = !{i32 7, !"PIE Level", i32 2}
!3 = !{i32 7, !"uwtable", i32 1}
!4 = !{!"clang version 13.0.0"}
!5 = !{!6, !6, i64 0}
!6 = !{!"int", !7, i64 0}
!7 = !{!"omnipotent char", !8, i64 0}
!8 = !{!"Simple C/C++ TBAA"}
!9 = !{!7, !7, i64 0}
!10 = distinct !{!10, !11}
!11 = !{!"llvm.loop.mustprogress"}
!12 = distinct !{!12, !11}
!13 = distinct !{!13, !11}
